target datalayout = "e-m:e-p270:32:32-p271:32:32-p272:64:64-i64:64-i128:128-f80:128-n8:16:32:64-S128"
target triple = "x86_64-pc-linux-gnu"

@.str.37 = private unnamed_addr constant [6 x i8] c"8=FIX\00", align 1
@.str.38 = private unnamed_addr constant [3 x i8] c"\018\00", align 1

; Function Attrs: null_pointer_is_valid sspstrong uwtable
define internal i32 @fix_marker(ptr noundef %0, i32 noundef %1) #0 {
  %3 = alloca ptr, align 8
  %4 = alloca i32, align 4
  store ptr %0, ptr %3, align 8
  store i32 %1, ptr %4, align 4
  %5 = load ptr, ptr %3, align 8
  %6 = load i32, ptr %4, align 4
  %7 = call i32 @tvb_strneql(ptr noundef %5, i32 noundef %6, ptr noundef @.str.37, i64 noundef 5)
  ret i32 %7
}

; Function Attrs: null_pointer_is_valid sspstrong uwtable
define internal i32 @fix_next_header(ptr noundef %0, i32 noundef %1) #0 {
  %3 = alloca ptr, align 8
  %4 = alloca i32, align 4
  %5 = alloca i32, align 4
  %6 = alloca ptr, align 8
  %7 = alloca ptr, align 8
  store ptr %0, ptr %3, align 8
  store i32 %1, ptr %4, align 4
  call void @llvm.lifetime.start.p0(i64 4, ptr %5) #7
  %8 = load ptr, ptr %3, align 8
  %9 = load i32, ptr %4, align 4
  %10 = call i32 @tvb_captured_length_remaining(ptr noundef %8, i32 noundef %9)
  store i32 %10, ptr %5, align 4
  call void @llvm.lifetime.start.p0(i64 8, ptr %6) #7
  %11 = call ptr @wmem_packet_scope()
  %12 = load ptr, ptr %3, align 8
  %13 = load i32, ptr %4, align 4
  %14 = load i32, ptr %5, align 4
  %15 = call ptr @tvb_get_string_enc(ptr noundef %11, ptr noundef %12, i32 noundef %13, i32 noundef %14, i32 noundef 0)
  store ptr %15, ptr %6, align 8
  call void @llvm.lifetime.start.p0(i64 8, ptr %7) #7
  %16 = load ptr, ptr %6, align 8
  store ptr %16, ptr %7, align 8
  br label %17

17:                                               ; preds = %44, %2
  %18 = load ptr, ptr %7, align 8
  %19 = call ptr @strstr(ptr noundef %18, ptr noundef @.str.38) #8
  store ptr %19, ptr %7, align 8
  %20 = icmp ne ptr %19, null
  br i1 %20, label %21, label %47

21:                                               ; preds = %17
  %22 = load ptr, ptr %7, align 8
  %23 = getelementptr i8, ptr %22, i64 1
  %24 = load ptr, ptr %6, align 8
  %25 = ptrtoint ptr %23 to i64
  %26 = ptrtoint ptr %24 to i64
  %27 = sub i64 %25, %26
  %28 = trunc i64 %27 to i32
  store i32 %28, ptr %5, align 4
  %29 = load ptr, ptr %3, align 8
  %30 = load i32, ptr %5, align 4
  %31 = load i32, ptr %4, align 4
  %32 = add i32 %30, %31
  %33 = call i32 @tvb_reported_length_remaining(ptr noundef %29, i32 noundef %32)
  %34 = icmp slt i32 %33, 5
  br i1 %34, label %35, label %36

35:                                               ; preds = %21
  br label %47

36:                                               ; preds = %21
  %37 = load ptr, ptr %3, align 8
  %38 = load i32, ptr %5, align 4
  %39 = load i32, ptr %4, align 4
  %40 = add i32 %38, %39
  %41 = call i32 @fix_marker(ptr noundef %37, i32 noundef %40)
  %42 = icmp ne i32 %41, 0
  br i1 %42, label %44, label %43

43:                                               ; preds = %36
  br label %47

44:                                               ; preds = %36
  %45 = load ptr, ptr %7, align 8
  %46 = getelementptr i8, ptr %45, i32 1
  store ptr %46, ptr %7, align 8
  br label %17, !llvm.loop !11

47:                                               ; preds = %43, %35, %17
  %48 = load i32, ptr %5, align 4
  call void @llvm.lifetime.end.p0(i64 8, ptr %7) #7
  call void @llvm.lifetime.end.p0(i64 8, ptr %6) #7
  call void @llvm.lifetime.end.p0(i64 4, ptr %5) #7
  ret i32 %48
}