; Function Attrs: null_pointer_is_valid sspstrong uwtable
define internal fastcc i32 @fix_next_header(ptr noundef %0, i32 noundef %1) unnamed_addr #0 {
  %3 = tail call i32 @tvb_captured_length_remaining(ptr noundef %0, i32 noundef %1)
  %4 = tail call ptr @wmem_packet_scope()
  %5 = tail call ptr @tvb_get_string_enc(ptr noundef %4, ptr noundef %0, i32 noundef %1, i32 noundef %3, i32 noundef 0)
  %6 = tail call ptr @strstr(ptr noundef %5, ptr noundef nonnull dereferenceable(1) @.str.38) #6
  %.not19 = icmp eq ptr %6, null
  br i1 %.not19, label %._crit_edge, label %.lr.ph

.lr.ph:                                           ; preds = %2
  %7 = ptrtoint ptr %5 to i64
  br label %10

8:                                                ; preds = %19
  %9 = tail call ptr @strstr(ptr noundef %12, ptr noundef nonnull dereferenceable(1) @.str.38) #6
  %.not = icmp eq ptr %9, null
  br i1 %.not, label %._crit_edge, label %10, !llvm.loop !12

10:                                               ; preds = %.lr.ph, %8
  %11 = phi ptr [ %6, %.lr.ph ], [ %9, %8 ]
  %12 = getelementptr i8, ptr %11, i64 1
  %13 = ptrtoint ptr %12 to i64
  %14 = sub i64 %13, %7
  %15 = trunc i64 %14 to i32
  %16 = add i32 %1, %15
  %17 = tail call i32 @tvb_reported_length_remaining(ptr noundef %0, i32 noundef %16)
  %18 = icmp slt i32 %17, 5
  br i1 %18, label %._crit_edge, label %19

19:                                               ; preds = %10
  %20 = tail call i32 @tvb_strneql(ptr noundef %0, i32 noundef %16, ptr noundef nonnull @.str.37, i64 noundef 5)
  %.not18 = icmp eq i32 %20, 0
  br i1 %.not18, label %._crit_edge, label %8, !llvm.loop !12

._crit_edge:                                      ; preds = %8, %10, %19, %2
  %.1 = phi i32 [ %3, %2 ], [ %15, %19 ], [ %15, %10 ], [ %15, %8 ]
  ret i32 %.1
}